; Function Attrs: mustprogress uwtable
define hidden noundef i32 @_ZN5arith6solver9check_nlaEv(ptr noundef nonnull align 8 dereferenceable(1144) %this) local_unnamed_addr #3 align 2 {
entry:
  %m = getelementptr inbounds i8, ptr %this, i64 72
  %0 = load ptr, ptr %m, align 8
  %call2.i = tail call noundef zeroext i1 @_ZN8reslimit3incEv(ptr noundef nonnull align 8 dereferenceable(40) %0)
  br i1 %call2.i, label %if.end, label %return

if.end:                                           ; preds = %entry
  %m_nla = getelementptr inbounds i8, ptr %this, i64 576
  %1 = load ptr, ptr %m_nla, align 8
  %cmp.i.not = icmp eq ptr %1, null
  br i1 %cmp.i.not, label %return, label %if.end4

if.end4:                                          ; preds = %if.end
  %call7 = tail call noundef zeroext i1 @_ZN3nla6solver10need_checkEv(ptr noundef nonnull align 8 dereferenceable(8) %1)
  br i1 %call7, label %if.end9, label %return

if.end9:                                          ; preds = %if.end4
  %2 = load ptr, ptr %m_nla, align 8
  %call12 = tail call noundef i32 @_ZN3nla6solver5checkEv(ptr noundef nonnull align 8 dereferenceable(8) %2)
  %cond = icmp eq i32 %call12, -1
  br i1 %cond, label %sw.bb, label %return

sw.bb:                                            ; preds = %if.end9
  tail call void @_ZN5arith6solver10add_lemmasEv(ptr noundef nonnull align 8 dereferenceable(1144) %this)
  br label %return

return:                                           ; preds = %sw.bb, %if.end9, %if.end4, %if.end, %entry
  %retval.0 = phi i32 [ 0, %entry ], [ 1, %if.end ], [ 1, %if.end4 ], [ %call12, %if.end9 ], [ -1, %sw.bb ]
  ret i32 %retval.0
}